target datalayout = "e-m:e-p270:32:32-p271:32:32-p272:64:64-i64:64-i128:128-f80:128-n8:16:32:64-S128"
target triple = "x86_64-pc-linux-gnu"

%struct.RMD160_CTX = type { [5 x i32], [2 x i32], [64 x i8], i32 }

; Function Attrs: alwaysinline nounwind
define internal ptr @memcpy.inline(ptr noalias nonnull %0, ptr noalias nonnull %1, i64 %2) #2 {
  %4 = alloca ptr, align 8
  %5 = alloca ptr, align 8
  %6 = alloca i64, align 8
  store ptr %0, ptr %4, align 8, !tbaa !6
  store ptr %1, ptr %5, align 8, !tbaa !6
  store i64 %2, ptr %6, align 8, !tbaa !18
  %7 = load ptr, ptr %4, align 8, !tbaa !6
  %8 = load ptr, ptr %5, align 8, !tbaa !6
  %9 = load i64, ptr %6, align 8, !tbaa !18
  %10 = load ptr, ptr %4, align 8, !tbaa !6
  %11 = call i64 @llvm.objectsize.i64.p0(ptr %10, i1 false, i1 true, i1 false)
  %12 = call ptr @__memcpy_chk(ptr noundef %7, ptr noundef %8, i64 noundef %9, i64 noundef %11) #5
  ret ptr %12
}

; Function Attrs: alwaysinline nounwind
define internal ptr @memset.inline(ptr nonnull %0, i32 %1, i64 %2) #2 {
  %4 = alloca ptr, align 8
  %5 = alloca i32, align 4
  %6 = alloca i64, align 8
  store ptr %0, ptr %4, align 8, !tbaa !6
  store i32 %1, ptr %5, align 4, !tbaa !10
  store i64 %2, ptr %6, align 8, !tbaa !18
  %7 = load ptr, ptr %4, align 8, !tbaa !6
  %8 = load i32, ptr %5, align 4, !tbaa !10
  %9 = load i64, ptr %6, align 8, !tbaa !18
  %10 = load ptr, ptr %4, align 8, !tbaa !6
  %11 = call i64 @llvm.objectsize.i64.p0(ptr %10, i1 false, i1 true, i1 false)
  %12 = call ptr @__memset_chk(ptr noundef %7, i32 noundef %8, i64 noundef %9, i64 noundef %11) #5
  ret ptr %12
}

; Function Attrs: nounwind sspstrong uwtable
define void @rb_Digest_RMD160_Update(ptr noundef %0, ptr noundef %1, i64 noundef %2) #0 {
  %4 = alloca ptr, align 8
  %5 = alloca ptr, align 8
  %6 = alloca i64, align 8
  %7 = alloca [16 x i32], align 16
  %8 = alloca i32, align 4
  %9 = alloca i32, align 4
  store ptr %0, ptr %4, align 8, !tbaa !6
  store ptr %1, ptr %5, align 8, !tbaa !16
  store i64 %2, ptr %6, align 8, !tbaa !18
  call void @llvm.lifetime.start.p0(i64 64, ptr %7) #5
  call void @llvm.lifetime.start.p0(i64 4, ptr %8) #5
  store i32 0, ptr %8, align 4, !tbaa !10
  call void @llvm.lifetime.start.p0(i64 4, ptr %9) #5
  %10 = load ptr, ptr %4, align 8, !tbaa !6
  %11 = getelementptr inbounds nuw %struct.RMD160_CTX, ptr %10, i32 0, i32 1
  %12 = getelementptr inbounds [2 x i32], ptr %11, i64 0, i64 0
  %13 = load i32, ptr %12, align 4, !tbaa !10
  %14 = zext i32 %13 to i64
  %15 = load i64, ptr %6, align 8, !tbaa !18
  %16 = add i64 %14, %15
  %17 = lshr i64 %16, 32
  %18 = trunc i64 %17 to i32
  %19 = load ptr, ptr %4, align 8, !tbaa !6
  %20 = getelementptr inbounds nuw %struct.RMD160_CTX, ptr %19, i32 0, i32 1
  %21 = getelementptr inbounds [2 x i32], ptr %20, i64 0, i64 1
  %22 = load i32, ptr %21, align 4, !tbaa !10
  %23 = add i32 %22, %18
  store i32 %23, ptr %21, align 4, !tbaa !10
  %24 = load i64, ptr %6, align 8, !tbaa !18
  %25 = trunc i64 %24 to i32
  %26 = load ptr, ptr %4, align 8, !tbaa !6
  %27 = getelementptr inbounds nuw %struct.RMD160_CTX, ptr %26, i32 0, i32 1
  %28 = getelementptr inbounds [2 x i32], ptr %27, i64 0, i64 0
  %29 = load i32, ptr %28, align 4, !tbaa !10
  %30 = add i32 %29, %25
  store i32 %30, ptr %28, align 4, !tbaa !10
  %31 = getelementptr inbounds [16 x i32], ptr %7, i64 0, i64 0
  %32 = call ptr @memset.inline(ptr noundef %31, i32 noundef 0, i64 noundef 64) #5
  %33 = load ptr, ptr %4, align 8, !tbaa !6
  %34 = getelementptr inbounds nuw %struct.RMD160_CTX, ptr %33, i32 0, i32 3
  %35 = load i32, ptr %34, align 4, !tbaa !12
  %36 = zext i32 %35 to i64
  %37 = load i64, ptr %6, align 8, !tbaa !18
  %38 = add i64 %36, %37
  %39 = icmp ult i64 %38, 64
  br i1 %39, label %40, label %58

40:                                               ; preds = %3
  %41 = load ptr, ptr %4, align 8, !tbaa !6
  %42 = getelementptr inbounds nuw %struct.RMD160_CTX, ptr %41, i32 0, i32 2
  %43 = getelementptr inbounds [64 x i8], ptr %42, i64 0, i64 0
  %44 = load ptr, ptr %4, align 8, !tbaa !6
  %45 = getelementptr inbounds nuw %struct.RMD160_CTX, ptr %44, i32 0, i32 3
  %46 = load i32, ptr %45, align 4, !tbaa !12
  %47 = zext i32 %46 to i64
  %48 = getelementptr inbounds nuw i8, ptr %43, i64 %47
  %49 = load ptr, ptr %5, align 8, !tbaa !16
  %50 = load i64, ptr %6, align 8, !tbaa !18
  %51 = call ptr @memcpy.inline(ptr noundef %48, ptr noundef %49, i64 noundef %50) #5
  %52 = load i64, ptr %6, align 8, !tbaa !18
  %53 = trunc i64 %52 to i32
  %54 = load ptr, ptr %4, align 8, !tbaa !6
  %55 = getelementptr inbounds nuw %struct.RMD160_CTX, ptr %54, i32 0, i32 3
  %56 = load i32, ptr %55, align 4, !tbaa !12
  %57 = add i32 %56, %53
  store i32 %57, ptr %55, align 4, !tbaa !12
  br label %134

58:                                               ; preds = %3
  %59 = load ptr, ptr %4, align 8, !tbaa !6
  %60 = getelementptr inbounds nuw %struct.RMD160_CTX, ptr %59, i32 0, i32 3
  %61 = load i32, ptr %60, align 4, !tbaa !12
  %62 = sub i32 64, %61
  store i32 %62, ptr %8, align 4, !tbaa !10
  %63 = load ptr, ptr %4, align 8, !tbaa !6
  %64 = getelementptr inbounds nuw %struct.RMD160_CTX, ptr %63, i32 0, i32 2
  %65 = getelementptr inbounds [64 x i8], ptr %64, i64 0, i64 0
  %66 = load ptr, ptr %4, align 8, !tbaa !6
  %67 = getelementptr inbounds nuw %struct.RMD160_CTX, ptr %66, i32 0, i32 3
  %68 = load i32, ptr %67, align 4, !tbaa !12
  %69 = zext i32 %68 to i64
  %70 = getelementptr inbounds nuw i8, ptr %65, i64 %69
  %71 = load ptr, ptr %5, align 8, !tbaa !16
  %72 = load i32, ptr %8, align 4, !tbaa !10
  %73 = zext i32 %72 to i64
  %74 = call ptr @memcpy.inline(ptr noundef %70, ptr noundef %71, i64 noundef %73) #5
  %75 = getelementptr inbounds [16 x i32], ptr %7, i64 0, i64 0
  %76 = load ptr, ptr %4, align 8, !tbaa !6
  %77 = getelementptr inbounds nuw %struct.RMD160_CTX, ptr %76, i32 0, i32 2
  %78 = getelementptr inbounds [64 x i8], ptr %77, i64 0, i64 0
  %79 = call ptr @memcpy.inline(ptr noundef %75, ptr noundef %78, i64 noundef 64) #5
  %80 = load ptr, ptr %4, align 8, !tbaa !6
  %81 = getelementptr inbounds nuw %struct.RMD160_CTX, ptr %80, i32 0, i32 0
  %82 = getelementptr inbounds [5 x i32], ptr %81, i64 0, i64 0
  %83 = getelementptr inbounds [16 x i32], ptr %7, i64 0, i64 0
  call void @rb_Digest_RMD160_Transform(ptr noundef %82, ptr noundef %83)
  %84 = load i32, ptr %8, align 4, !tbaa !10
  %85 = zext i32 %84 to i64
  %86 = load i64, ptr %6, align 8, !tbaa !18
  %87 = sub i64 %86, %85
  store i64 %87, ptr %6, align 8, !tbaa !18
  store i32 0, ptr %9, align 4, !tbaa !10
  br label %88

88:                                               ; preds = %109, %58
  %89 = load i32, ptr %9, align 4, !tbaa !10
  %90 = zext i32 %89 to i64
  %91 = load i64, ptr %6, align 8, !tbaa !18
  %92 = lshr i64 %91, 6
  %93 = icmp ult i64 %90, %92
  br i1 %93, label %94, label %112

94:                                               ; preds = %88
  %95 = getelementptr inbounds [16 x i32], ptr %7, i64 0, i64 0
  %96 = load ptr, ptr %5, align 8, !tbaa !16
  %97 = load i32, ptr %9, align 4, !tbaa !10
  %98 = mul i32 64, %97
  %99 = zext i32 %98 to i64
  %100 = getelementptr inbounds nuw i8, ptr %96, i64 %99
  %101 = load i32, ptr %8, align 4, !tbaa !10
  %102 = zext i32 %101 to i64
  %103 = getelementptr inbounds nuw i8, ptr %100, i64 %102
  %104 = call ptr @memcpy.inline(ptr noundef %95, ptr noundef %103, i64 noundef 64) #5
  %105 = load ptr, ptr %4, align 8, !tbaa !6
  %106 = getelementptr inbounds nuw %struct.RMD160_CTX, ptr %105, i32 0, i32 0
  %107 = getelementptr inbounds [5 x i32], ptr %106, i64 0, i64 0
  %108 = getelementptr inbounds [16 x i32], ptr %7, i64 0, i64 0
  call void @rb_Digest_RMD160_Transform(ptr noundef %107, ptr noundef %108)
  br label %109

109:                                              ; preds = %94
  %110 = load i32, ptr %9, align 4, !tbaa !10
  %111 = add i32 %110, 1
  store i32 %111, ptr %9, align 4, !tbaa !10
  br label %88, !llvm.loop !20

112:                                              ; preds = %88
  %113 = load i64, ptr %6, align 8, !tbaa !18
  %114 = trunc i64 %113 to i32
  %115 = and i32 %114, 63
  %116 = load ptr, ptr %4, align 8, !tbaa !6
  %117 = getelementptr inbounds nuw %struct.RMD160_CTX, ptr %116, i32 0, i32 3
  store i32 %115, ptr %117, align 4, !tbaa !12
  %118 = load ptr, ptr %4, align 8, !tbaa !6
  %119 = getelementptr inbounds nuw %struct.RMD160_CTX, ptr %118, i32 0, i32 2
  %120 = getelementptr inbounds [64 x i8], ptr %119, i64 0, i64 0
  %121 = load ptr, ptr %5, align 8, !tbaa !16
  %122 = load i32, ptr %9, align 4, !tbaa !10
  %123 = mul i32 64, %122
  %124 = zext i32 %123 to i64
  %125 = getelementptr inbounds nuw i8, ptr %121, i64 %124
  %126 = load i32, ptr %8, align 4, !tbaa !10
  %127 = zext i32 %126 to i64
  %128 = getelementptr inbounds nuw i8, ptr %125, i64 %127
  %129 = load ptr, ptr %4, align 8, !tbaa !6
  %130 = getelementptr inbounds nuw %struct.RMD160_CTX, ptr %129, i32 0, i32 3
  %131 = load i32, ptr %130, align 4, !tbaa !12
  %132 = zext i32 %131 to i64
  %133 = call ptr @memcpy.inline(ptr noundef %120, ptr noundef %128, i64 noundef %132) #5
  br label %134

134:                                              ; preds = %112, %40
  call void @llvm.lifetime.end.p0(i64 4, ptr %9) #5
  call void @llvm.lifetime.end.p0(i64 4, ptr %8) #5
  call void @llvm.lifetime.end.p0(i64 64, ptr %7) #5
  ret void
}