; Function Attrs: nofree nounwind sspstrong memory(argmem: readwrite) uwtable
define void @rb_Digest_RMD160_Update(ptr noundef %0, ptr noundef readonly captures(none) %1, i64 noundef %2) local_unnamed_addr #4 {
  %4 = alloca [16 x i32], align 16
  call void @llvm.lifetime.start.p0(i64 64, ptr nonnull %4) #8
  %5 = getelementptr inbounds nuw i8, ptr %0, i64 20
  %6 = load i32, ptr %5, align 4, !tbaa !6
  %7 = zext i32 %6 to i64
  %8 = add i64 %2, %7
  %9 = lshr i64 %8, 32
  %10 = trunc nuw i64 %9 to i32
  %11 = getelementptr inbounds nuw i8, ptr %0, i64 24
  %12 = load i32, ptr %11, align 4, !tbaa !6
  %13 = add i32 %12, %10
  store i32 %13, ptr %11, align 4, !tbaa !6
  %14 = trunc i64 %2 to i32
  %15 = add i32 %6, %14
  store i32 %15, ptr %5, align 4, !tbaa !6
  %16 = getelementptr inbounds nuw i8, ptr %0, i64 92
  %17 = load i32, ptr %16, align 4, !tbaa !10
  %18 = zext i32 %17 to i64
  %19 = add i64 %2, %18
  %20 = icmp ult i64 %19, 64
  br i1 %20, label %21, label %26

21:                                               ; preds = %3
  %22 = getelementptr inbounds nuw i8, ptr %0, i64 28
  %23 = getelementptr inbounds nuw i8, ptr %22, i64 %18
  tail call void @llvm.memcpy.p0.p0.i64(ptr noundef nonnull align 1 %23, ptr noundef nonnull align 1 %1, i64 noundef %2, i1 noundef false) #8
  %24 = load i32, ptr %16, align 4, !tbaa !10
  %25 = add i32 %24, %14
  store i32 %25, ptr %16, align 4, !tbaa !10
  br label %45

26:                                               ; preds = %3
  %27 = sub i32 64, %17
  %28 = getelementptr inbounds nuw i8, ptr %0, i64 28
  %29 = getelementptr inbounds nuw i8, ptr %28, i64 %18
  %30 = zext i32 %27 to i64
  tail call void @llvm.memcpy.p0.p0.i64(ptr noundef nonnull align 1 %29, ptr noundef nonnull align 1 %1, i64 noundef %30, i1 noundef false) #8
  call void @llvm.memcpy.p0.p0.i64(ptr noundef nonnull align 16 dereferenceable(64) %4, ptr noundef nonnull align 1 dereferenceable(64) %28, i64 noundef 64, i1 noundef false) #8
  call void @rb_Digest_RMD160_Transform(ptr noundef nonnull %0, ptr noundef nonnull %4)
  %31 = sub i64 %2, %30
  %32 = lshr i64 %31, 6
  %invariant.gep = getelementptr inbounds nuw i8, ptr %1, i64 %30
  %.not = icmp ult i64 %31, 64
  br i1 %.not, label %._crit_edge, label %.lr.ph

.lr.ph:                                           ; preds = %26, %.lr.ph
  %.035 = phi i32 [ %35, %.lr.ph ], [ 0, %26 ]
  %33 = shl i32 %.035, 6
  %34 = zext i32 %33 to i64
  %gep = getelementptr inbounds nuw i8, ptr %invariant.gep, i64 %34
  call void @llvm.memcpy.p0.p0.i64(ptr noundef nonnull align 16 dereferenceable(64) %4, ptr noundef nonnull align 1 dereferenceable(64) %gep, i64 noundef 64, i1 noundef false) #8
  call void @rb_Digest_RMD160_Transform(ptr noundef nonnull %0, ptr noundef nonnull %4)
  %35 = add i32 %.035, 1
  %36 = zext i32 %35 to i64
  %37 = icmp samesign ugt i64 %32, %36
  br i1 %37, label %.lr.ph, label %._crit_edge.loopexit, !llvm.loop !12

._crit_edge.loopexit:                             ; preds = %.lr.ph
  %38 = shl i32 %35, 6
  %39 = zext i32 %38 to i64
  br label %._crit_edge

._crit_edge:                                      ; preds = %._crit_edge.loopexit, %26
  %.0.lcssa = phi i64 [ 0, %26 ], [ %39, %._crit_edge.loopexit ]
  %40 = trunc i64 %31 to i32
  %41 = and i32 %40, 63
  store i32 %41, ptr %16, align 4, !tbaa !10
  %42 = getelementptr inbounds nuw i8, ptr %1, i64 %.0.lcssa
  %43 = getelementptr inbounds nuw i8, ptr %42, i64 %30
  %44 = and i64 %31, 63
  tail call void @llvm.memcpy.p0.p0.i64(ptr noundef nonnull align 1 %28, ptr noundef nonnull align 1 %43, i64 noundef %44, i1 noundef false) #8
  br label %45

45:                                               ; preds = %._crit_edge, %21
  call void @llvm.lifetime.end.p0(i64 64, ptr nonnull %4) #8
  ret void
}